target datalayout = "e-m:e-p270:32:32-p271:32:32-p272:64:64-i64:64-i128:128-f80:128-n8:16:32:64-S128"
target triple = "x86_64-pc-linux-gnu"

%"class.icu_77::number::impl::StringProp" = type { ptr, i16, i32 }
%"class.icu_77::StringPiece" = type <{ ptr, i32, [4 x i8] }>

; Function Attrs: mustprogress nounwind uwtable
define linkonce_odr noundef ptr @_ZNK6icu_7711StringPiece4dataEv(ptr noundef nonnull align 8 dereferenceable(12) %0) #0 comdat align 2 {
  %2 = alloca ptr, align 8
  store ptr %0, ptr %2, align 8, !tbaa !31
  %3 = load ptr, ptr %2, align 8
  %4 = getelementptr inbounds nuw %"class.icu_77::StringPiece", ptr %3, i32 0, i32 0
  %5 = load ptr, ptr %4, align 8, !tbaa !35
  ret ptr %5
}

; Function Attrs: mustprogress nounwind uwtable
define linkonce_odr noundef i32 @_ZNK6icu_7711StringPiece6lengthEv(ptr noundef nonnull align 8 dereferenceable(12) %0) #0 comdat align 2 {
  %2 = alloca ptr, align 8
  store ptr %0, ptr %2, align 8, !tbaa !31
  %3 = load ptr, ptr %2, align 8
  %4 = getelementptr inbounds nuw %"class.icu_77::StringPiece", ptr %3, i32 0, i32 1
  %5 = load i32, ptr %4, align 8, !tbaa !33
  ret i32 %5
}

; Function Attrs: mustprogress uwtable
define void @_ZN6icu_776number4impl10StringProp3setENS_11StringPieceE(ptr noundef nonnull align 8 dereferenceable(16) %0, ptr %1, i32 %2) #1 align 2 {
  %4 = alloca %"class.icu_77::StringPiece", align 8
  %5 = alloca ptr, align 8
  %6 = getelementptr inbounds nuw { ptr, i32 }, ptr %4, i32 0, i32 0
  store ptr %1, ptr %6, align 8
  %7 = getelementptr inbounds nuw { ptr, i32 }, ptr %4, i32 0, i32 1
  store i32 %2, ptr %7, align 8
  store ptr %0, ptr %5, align 8, !tbaa !23
  %8 = load ptr, ptr %5, align 8
  %9 = getelementptr inbounds nuw %"class.icu_77::number::impl::StringProp", ptr %8, i32 0, i32 0
  %10 = load ptr, ptr %9, align 8, !tbaa !25
  %11 = icmp ne ptr %10, null
  br i1 %11, label %12, label %16

12:                                               ; preds = %3
  %13 = getelementptr inbounds nuw %"class.icu_77::number::impl::StringProp", ptr %8, i32 0, i32 0
  %14 = load ptr, ptr %13, align 8, !tbaa !25
  call void @uprv_free_77(ptr noundef %14)
  %15 = getelementptr inbounds nuw %"class.icu_77::number::impl::StringProp", ptr %8, i32 0, i32 0
  store ptr null, ptr %15, align 8, !tbaa !25
  br label %16

16:                                               ; preds = %12, %3
  %17 = call noundef i32 @_ZNK6icu_7711StringPiece6lengthEv(ptr noundef nonnull align 8 dereferenceable(12) %4)
  %18 = trunc i32 %17 to i16
  %19 = getelementptr inbounds nuw %"class.icu_77::number::impl::StringProp", ptr %8, i32 0, i32 1
  store i16 %18, ptr %19, align 8, !tbaa !28
  %20 = getelementptr inbounds nuw %"class.icu_77::number::impl::StringProp", ptr %8, i32 0, i32 1
  %21 = load i16, ptr %20, align 8, !tbaa !28
  %22 = sext i16 %21 to i32
  %23 = add nsw i32 %22, 1
  %24 = sext i32 %23 to i64
  %25 = call noalias ptr @uprv_malloc_77(i64 noundef %24) #13
  %26 = getelementptr inbounds nuw %"class.icu_77::number::impl::StringProp", ptr %8, i32 0, i32 0
  store ptr %25, ptr %26, align 8, !tbaa !25
  %27 = getelementptr inbounds nuw %"class.icu_77::number::impl::StringProp", ptr %8, i32 0, i32 0
  %28 = load ptr, ptr %27, align 8, !tbaa !25
  %29 = icmp eq ptr %28, null
  br i1 %29, label %30, label %33

30:                                               ; preds = %16
  %31 = getelementptr inbounds nuw %"class.icu_77::number::impl::StringProp", ptr %8, i32 0, i32 1
  store i16 0, ptr %31, align 8, !tbaa !28
  %32 = getelementptr inbounds nuw %"class.icu_77::number::impl::StringProp", ptr %8, i32 0, i32 2
  store i32 7, ptr %32, align 4, !tbaa !29
  br label %53

33:                                               ; preds = %16
  %34 = getelementptr inbounds nuw %"class.icu_77::number::impl::StringProp", ptr %8, i32 0, i32 1
  %35 = load i16, ptr %34, align 8, !tbaa !28
  %36 = sext i16 %35 to i32
  %37 = icmp sgt i32 %36, 0
  br i1 %37, label %38, label %46

38:                                               ; preds = %33
  %39 = getelementptr inbounds nuw %"class.icu_77::number::impl::StringProp", ptr %8, i32 0, i32 0
  %40 = load ptr, ptr %39, align 8, !tbaa !25
  %41 = call noundef ptr @_ZNK6icu_7711StringPiece4dataEv(ptr noundef nonnull align 8 dereferenceable(12) %4)
  %42 = getelementptr inbounds nuw %"class.icu_77::number::impl::StringProp", ptr %8, i32 0, i32 1
  %43 = load i16, ptr %42, align 8, !tbaa !28
  %44 = sext i16 %43 to i64
  %45 = call ptr @strncpy(ptr noundef %40, ptr noundef %41, i64 noundef %44) #12
  br label %46

46:                                               ; preds = %38, %33
  %47 = getelementptr inbounds nuw %"class.icu_77::number::impl::StringProp", ptr %8, i32 0, i32 0
  %48 = load ptr, ptr %47, align 8, !tbaa !25
  %49 = getelementptr inbounds nuw %"class.icu_77::number::impl::StringProp", ptr %8, i32 0, i32 1
  %50 = load i16, ptr %49, align 8, !tbaa !28
  %51 = sext i16 %50 to i64
  %52 = getelementptr inbounds i8, ptr %48, i64 %51
  store i8 0, ptr %52, align 1, !tbaa !30
  br label %53

53:                                               ; preds = %46, %30
  ret void
}