; Function Attrs: mustprogress uwtable
define void @_ZN6icu_776number4impl10StringProp3setENS_11StringPieceE(ptr noundef nonnull align 8 captures(none) dereferenceable(16) initializes((8, 10)) %0, ptr readonly captures(none) %1, i32 %2) local_unnamed_addr #1 align 2 {
  %4 = load ptr, ptr %0, align 8, !tbaa !15
  %.not = icmp eq ptr %4, null
  br i1 %.not, label %6, label %5

5:                                                ; preds = %3
  tail call void @uprv_free_77(ptr noundef nonnull %4)
  store ptr null, ptr %0, align 8, !tbaa !15
  br label %6

6:                                                ; preds = %5, %3
  %7 = trunc i32 %2 to i16
  %8 = getelementptr inbounds nuw i8, ptr %0, i64 8
  store i16 %7, ptr %8, align 8, !tbaa !18
  %sext = shl i32 %2, 16
  %9 = ashr exact i32 %sext, 16
  %10 = add nsw i32 %9, 1
  %11 = sext i32 %10 to i64
  %12 = tail call noalias ptr @uprv_malloc_77(i64 noundef %11) #16
  store ptr %12, ptr %0, align 8, !tbaa !15
  %13 = icmp eq ptr %12, null
  br i1 %13, label %14, label %16

14:                                               ; preds = %6
  store i16 0, ptr %8, align 8, !tbaa !18
  %15 = getelementptr inbounds nuw i8, ptr %0, i64 12
  store i32 7, ptr %15, align 4, !tbaa !19
  br label %25

16:                                               ; preds = %6
  %17 = load i16, ptr %8, align 8, !tbaa !18
  %18 = icmp sgt i16 %17, 0
  br i1 %18, label %19, label %22

19:                                               ; preds = %16
  %20 = zext nneg i16 %17 to i64
  %21 = tail call ptr @strncpy(ptr noundef nonnull %12, ptr noundef %1, i64 noundef %20) #15
  br label %22

22:                                               ; preds = %19, %16
  %23 = sext i16 %17 to i64
  %24 = getelementptr inbounds i8, ptr %12, i64 %23
  store i8 0, ptr %24, align 1, !tbaa !20
  br label %25

25:                                               ; preds = %22, %14
  ret void
}